(dp0
S'location_2'
p1
(lp2
(lp3
F3.426434589512654
aF-1.6909103381586792
aF0.0
aa(lp4
F0.0
aF0.0
aF-0.16769294267153517
aF0.9858392754288913
aasS'location_3'
p5
(lp6
(lp7
F4.537621549891525
aF-0.25255048449436
aF0.0
aa(lp8
F0.0
aF0.0
aF0.45501267532530265
aF0.890484960733931
aasS'location_1'
p9
(lp10
(lp11
F1.1501099860130948
aF-0.9771416191246296
aF0.0
aa(lp12
F0.0
aF0.0
aF-0.6266307555368769
aF0.7793163004937618
aas.