(dp0
S'location_2'
p1
(lp2
(lp3
F2.7679201094471093
aF-0.5421856658482735
aF0.0
aa(lp4
F0.0
aF0.0
aF-0.19947012691005256
aF0.9799039077738632
aasS'location_3'
p5
(lp6
(lp7
F4.257942654322665
aF0.09447794574777901
aF0.0
aa(lp8
F0.0
aF0.0
aF0.23796104748763633
aF0.9712746984651598
aasS'location_1'
p9
(lp10
(lp11
F0.9418538777265326
aF-0.008112919032320089
aF0.0
aa(lp12
F0.0
aF0.0
aF-0.0029907259808268165
aF0.9999955277690534
aas.