(dp0
S'location_2'
p1
(lp2
(lp3
F1.005693749329719
aF2.7815396056237915
aF0.0
aa(lp4
F0.0
aF0.0
aF0.7593204012763985
aF0.6507169340085205
aasS'Start Pose'
p5
(lp6
(lp7
F0.0
aF0.0
aF0.0
aa(lp8
I0
aI0
aI0
aI1
aasS'location_1'
p9
(lp10
(lp11
F2.0676503102653347
aF-0.4781773720727651
aF0.0
aa(lp12
F0.0
aF0.0
aF0.21801973310570222
aF-0.9759443611069835
aas.